target datalayout = "e-m:e-p270:32:32-p271:32:32-p272:64:64-i64:64-i128:128-f80:128-n8:16:32:64-S128"
target triple = "x86_64-pc-linux-gnu"

%"class.llvm::SmallVectorBase" = type { ptr, i32, i32 }
%"class.llvm::DenseMap.134" = type <{ ptr, i32, i32, i32, [4 x i8] }>
%"class.llvm::SmallVector.129" = type { %"class.llvm::SmallVectorImpl.130", %"struct.llvm::SmallVectorStorage.133" }
%"class.llvm::SmallVectorImpl.130" = type { %"class.llvm::SmallVectorTemplateBase.131" }
%"class.llvm::SmallVectorTemplateBase.131" = type { %"class.llvm::SmallVectorTemplateCommon.132" }
%"class.llvm::SmallVectorTemplateCommon.132" = type { %"class.llvm::SmallVectorBase" }
%"struct.llvm::SmallVectorStorage.133" = type { [128 x i8] }
%"class.llvm::PMDataManager" = type <{ ptr, ptr, %"class.llvm::SmallVector.129", [6 x ptr], %"class.llvm::DenseMap.134", %"class.llvm::SmallVector.129", i32, [4 x i8] }>

; Function Attrs: mustprogress nounwind uwtable
define linkonce_odr hidden noundef ptr @_ZN4llvm25SmallVectorTemplateCommonIPNS_4PassEvE5beginEv(ptr noundef nonnull align 8 dereferenceable(16) %0) #1 comdat align 2 {
  %2 = alloca ptr, align 8
  store ptr %0, ptr %2, align 8
  %3 = load ptr, ptr %2, align 8
  %4 = getelementptr inbounds nuw %"class.llvm::SmallVectorBase", ptr %3, i32 0, i32 0
  %5 = load ptr, ptr %4, align 8
  ret ptr %5
}

; Function Attrs: mustprogress nounwind uwtable
define linkonce_odr hidden noundef nonnull align 8 dereferenceable(8) ptr @_ZN4llvm25SmallVectorTemplateCommonIPNS_4PassEvEixEm(ptr noundef nonnull align 8 dereferenceable(16) %0, i64 noundef %1) #1 comdat align 2 {
  %3 = alloca ptr, align 8
  %4 = alloca i64, align 8
  store ptr %0, ptr %3, align 8
  store i64 %1, ptr %4, align 8
  %5 = load ptr, ptr %3, align 8
  %6 = call noundef ptr @_ZN4llvm25SmallVectorTemplateCommonIPNS_4PassEvE5beginEv(ptr noundef nonnull align 8 dereferenceable(16) %5)
  %7 = load i64, ptr %4, align 8
  %8 = getelementptr inbounds ptr, ptr %6, i64 %7
  ret ptr %8
}

; Function Attrs: mustprogress nounwind uwtable
define linkonce_odr hidden noundef ptr @_ZN4llvm13FPPassManager16getContainedPassEj(ptr noundef nonnull align 8 dereferenceable(412) %0, i32 noundef %1) #1 comdat align 2 {
  %3 = alloca ptr, align 8
  %4 = alloca i32, align 4
  %5 = alloca ptr, align 8
  store ptr %0, ptr %3, align 8
  store i32 %1, ptr %4, align 4
  %6 = load ptr, ptr %3, align 8
  %7 = getelementptr inbounds i8, ptr %6, i64 32
  %8 = getelementptr inbounds nuw %"class.llvm::PMDataManager", ptr %7, i32 0, i32 2
  %9 = load i32, ptr %4, align 4
  %10 = zext i32 %9 to i64
  %11 = call noundef nonnull align 8 dereferenceable(8) ptr @_ZN4llvm25SmallVectorTemplateCommonIPNS_4PassEvEixEm(ptr noundef nonnull align 8 dereferenceable(16) %8, i64 noundef %10)
  %12 = load ptr, ptr %11, align 8
  store ptr %12, ptr %5, align 8
  %13 = load ptr, ptr %5, align 8
  ret ptr %13
}

; Function Attrs: mustprogress nounwind uwtable
define linkonce_odr hidden noundef i32 @_ZNK4llvm13PMDataManager21getNumContainedPassesEv(ptr noundef nonnull align 8 dereferenceable(380) %0) #1 comdat align 2 {
  %2 = alloca ptr, align 8
  store ptr %0, ptr %2, align 8
  %3 = load ptr, ptr %2, align 8
  %4 = getelementptr inbounds nuw %"class.llvm::PMDataManager", ptr %3, i32 0, i32 2
  %5 = call noundef i64 @_ZNK4llvm15SmallVectorBaseIjE4sizeEv(ptr noundef nonnull align 8 dereferenceable(16) %4)
  %6 = trunc i64 %5 to i32
  ret i32 %6
}

; Function Attrs: mustprogress nounwind uwtable
define dso_local noundef zeroext i1 @_ZN4llvm13FPPassManager14doFinalizationERNS_6ModuleE(ptr noundef nonnull align 8 dereferenceable(412) %0, ptr noundef nonnull align 8 dereferenceable(857) %1) unnamed_addr #1 align 2 {
  %3 = alloca ptr, align 8
  %4 = alloca ptr, align 8
  %5 = alloca i8, align 1
  %6 = alloca i32, align 4
  store ptr %0, ptr %3, align 8
  store ptr %1, ptr %4, align 8
  %7 = load ptr, ptr %3, align 8
  store i8 0, ptr %5, align 1
  %8 = getelementptr inbounds i8, ptr %7, i64 32
  %9 = call noundef i32 @_ZNK4llvm13PMDataManager21getNumContainedPassesEv(ptr noundef nonnull align 8 dereferenceable(380) %8)
  %10 = sub i32 %9, 1
  store i32 %10, ptr %6, align 4
  br label %11

11:                                               ; preds = %29, %2
  %12 = load i32, ptr %6, align 4
  %13 = icmp sge i32 %12, 0
  br i1 %13, label %14, label %32

14:                                               ; preds = %11
  %15 = load i32, ptr %6, align 4
  %16 = call noundef ptr @_ZN4llvm13FPPassManager16getContainedPassEj(ptr noundef nonnull align 8 dereferenceable(412) %7, i32 noundef %15)
  %17 = load ptr, ptr %4, align 8
  %18 = load ptr, ptr %16, align 8
  %19 = getelementptr inbounds ptr, ptr %18, i64 4
  %20 = load ptr, ptr %19, align 8
  %21 = call noundef zeroext i1 %20(ptr noundef nonnull align 8 dereferenceable(28) %16, ptr noundef nonnull align 8 dereferenceable(857) %17)
  %22 = zext i1 %21 to i32
  %23 = load i8, ptr %5, align 1
  %24 = trunc i8 %23 to i1
  %25 = zext i1 %24 to i32
  %26 = or i32 %25, %22
  %27 = icmp ne i32 %26, 0
  %28 = zext i1 %27 to i8
  store i8 %28, ptr %5, align 1
  br label %29

29:                                               ; preds = %14
  %30 = load i32, ptr %6, align 4
  %31 = add nsw i32 %30, -1
  store i32 %31, ptr %6, align 4
  br label %11, !llvm.loop !27

32:                                               ; preds = %11
  %33 = load i8, ptr %5, align 1
  %34 = trunc i8 %33 to i1
  ret i1 %34
}