; Function Attrs: mustprogress nounwind uwtable
define dso_local noundef zeroext i1 @_ZN4llvm13FPPassManager14doFinalizationERNS_6ModuleE(ptr noundef nonnull align 8 dereferenceable(412) %0, ptr noundef nonnull align 8 dereferenceable(857) %1) unnamed_addr #0 align 2 {
  %3 = getelementptr inbounds i8, ptr %0, i64 48
  %4 = tail call noundef i64 @_ZNK4llvm15SmallVectorBaseIjE4sizeEv(ptr noundef nonnull align 8 dereferenceable(16) %3) #27
  %5 = trunc i64 %4 to i32
  %.07 = add i32 %5, -1
  %6 = icmp sgt i32 %.07, -1
  br i1 %6, label %.lr.ph, label %._crit_edge

.lr.ph:                                           ; preds = %2
  %7 = zext nneg i32 %.07 to i64
  br label %8

8:                                                ; preds = %.lr.ph, %8
  %indvars.iv = phi i64 [ %7, %.lr.ph ], [ %indvars.iv.next, %8 ]
  %.068 = phi i1 [ false, %.lr.ph ], [ %16, %8 ]
  %9 = load ptr, ptr %3, align 8
  %10 = getelementptr inbounds ptr, ptr %9, i64 %indvars.iv
  %11 = load ptr, ptr %10, align 8
  %12 = load ptr, ptr %11, align 8
  %13 = getelementptr inbounds i8, ptr %12, i64 32
  %14 = load ptr, ptr %13, align 8
  %15 = tail call noundef zeroext i1 %14(ptr noundef nonnull align 8 dereferenceable(28) %11, ptr noundef nonnull align 8 dereferenceable(857) %1) #27
  %16 = or i1 %.068, %15
  %indvars.iv.next = add nsw i64 %indvars.iv, -1
  %.not = icmp eq i64 %indvars.iv, 0
  br i1 %.not, label %._crit_edge, label %8, !llvm.loop !147

._crit_edge:                                      ; preds = %8, %2
  %.06.lcssa = phi i1 [ false, %2 ], [ %16, %8 ]
  ret i1 %.06.lcssa
}